target datalayout = "e-m:e-p270:32:32-p271:32:32-p272:64:64-i64:64-i128:128-f80:128-n8:16:32:64-S128"
target triple = "x86_64-pc-linux-gnu"

%struct.nstime_t = type { i64 }
%struct.malloc_mutex_s = type { %union.anon }
%union.anon = type { %struct.anon }
%struct.anon = type { %struct.mutex_prof_data_t, %union.pthread_mutex_t, %struct.atomic_b_t }
%struct.mutex_prof_data_t = type { %struct.nstime_t, %struct.nstime_t, i64, i64, i32, %struct.atomic_u32_t, i64, ptr, i64 }
%struct.atomic_u32_t = type { i32 }
%union.pthread_mutex_t = type { %struct.__pthread_mutex_s }
%struct.__pthread_mutex_s = type { i32, i32, i32, i32, i32, i16, i16, %struct.__pthread_internal_list }
%struct.__pthread_internal_list = type { ptr, ptr }
%struct.atomic_b_t = type { i8 }
%struct.hpa_shard_s = type { %struct.pai_s, ptr, %struct.malloc_mutex_s, %struct.malloc_mutex_s, ptr, %struct.edata_cache_fast_s, %struct.psset_s, i64, i32, ptr, %struct.hpa_shard_opts_s, i64, %struct.hpa_shard_nonderived_stats_s, %struct.nstime_t }
%struct.pai_s = type { ptr, ptr, ptr, ptr, ptr, ptr, ptr }
%struct.edata_cache_fast_s = type { %struct.edata_list_inactive_t, ptr, i8 }
%struct.edata_list_inactive_t = type { %struct.anon.1 }
%struct.anon.1 = type { ptr }
%struct.psset_s = type { [64 x %struct.hpdata_age_heap_t], [1 x i64], %struct.psset_bin_stats_s, %struct.psset_stats_s, %struct.hpdata_empty_list_t, [128 x %struct.hpdata_purge_list_t], [2 x i64], %struct.hpdata_hugify_list_t }
%struct.hpdata_age_heap_t = type { %struct.ph_s }
%struct.ph_s = type { ptr, i64 }
%struct.psset_bin_stats_s = type { i64, i64, i64 }
%struct.psset_stats_s = type { [64 x [2 x %struct.psset_bin_stats_s]], [2 x %struct.psset_bin_stats_s], [2 x %struct.psset_bin_stats_s] }
%struct.hpdata_empty_list_t = type { %struct.anon.2 }
%struct.anon.2 = type { ptr }
%struct.hpdata_purge_list_t = type { %struct.anon.3 }
%struct.anon.3 = type { ptr }
%struct.hpdata_hugify_list_t = type { %struct.anon.4 }
%struct.anon.4 = type { ptr }
%struct.hpa_shard_opts_s = type { i64, i64, i32, i8, i64, i64 }
%struct.hpa_shard_nonderived_stats_s = type { i64, i64, i64, i64 }

@.str.2 = private unnamed_addr constant [15 x i8] c"hpa_shard_grow\00", align 1
@.str.3 = private unnamed_addr constant [10 x i8] c"hpa_shard\00", align 1
@nstime_zero = internal constant %struct.nstime_t zeroinitializer, align 8

; Function Attrs: nounwind uwtable
define internal void @hpa_do_consistency_checks(ptr noundef %0) #0 {
  %2 = alloca ptr, align 8
  store ptr %0, ptr %2, align 8, !tbaa !44
  br label %3

3:                                                ; preds = %1
  br label %4

4:                                                ; preds = %3
  ret void
}

; Function Attrs: alwaysinline nounwind uwtable
define internal void @nstime_init_zero(ptr noundef %0) #5 {
  %2 = alloca ptr, align 8
  store ptr %0, ptr %2, align 8, !tbaa !26
  %3 = load ptr, ptr %2, align 8, !tbaa !26
  call void @je_nstime_copy(ptr noundef %3, ptr noundef @nstime_zero)
  ret void
}

; Function Attrs: nounwind uwtable
define hidden zeroext i1 @je_hpa_shard_init(ptr noundef %0, ptr noundef %1, ptr noundef %2, ptr noundef %3, ptr noundef %4, i32 noundef %5, ptr noundef %6) #0 {
  %8 = alloca i1, align 1
  %9 = alloca ptr, align 8
  %10 = alloca ptr, align 8
  %11 = alloca ptr, align 8
  %12 = alloca ptr, align 8
  %13 = alloca ptr, align 8
  %14 = alloca i32, align 4
  %15 = alloca ptr, align 8
  %16 = alloca i8, align 1
  %17 = alloca i32, align 4
  store ptr %0, ptr %9, align 8, !tbaa !44
  store ptr %1, ptr %10, align 8, !tbaa !4
  store ptr %2, ptr %11, align 8, !tbaa !46
  store ptr %3, ptr %12, align 8, !tbaa !9
  store ptr %4, ptr %13, align 8, !tbaa !48
  store i32 %5, ptr %14, align 4, !tbaa !38
  store ptr %6, ptr %15, align 8, !tbaa !50
  br label %18

18:                                               ; preds = %7
  br label %19

19:                                               ; preds = %18
  call void @llvm.lifetime.start.p0(i64 1, ptr %16) #7
  %20 = load ptr, ptr %9, align 8, !tbaa !44
  %21 = getelementptr inbounds nuw %struct.hpa_shard_s, ptr %20, i32 0, i32 3
  %22 = call zeroext i1 @je_malloc_mutex_init(ptr noundef %21, ptr noundef @.str.2, i32 noundef 17, i32 noundef 0)
  %23 = zext i1 %22 to i8
  store i8 %23, ptr %16, align 1, !tbaa !13
  %24 = load i8, ptr %16, align 1, !tbaa !13, !range !15, !noundef !16
  %25 = trunc i8 %24 to i1
  br i1 %25, label %26, label %27

26:                                               ; preds = %19
  store i1 true, ptr %8, align 1
  store i32 1, ptr %17, align 4
  br label %99

27:                                               ; preds = %19
  %28 = load ptr, ptr %9, align 8, !tbaa !44
  %29 = getelementptr inbounds nuw %struct.hpa_shard_s, ptr %28, i32 0, i32 2
  %30 = call zeroext i1 @je_malloc_mutex_init(ptr noundef %29, ptr noundef @.str.3, i32 noundef 18, i32 noundef 0)
  %31 = zext i1 %30 to i8
  store i8 %31, ptr %16, align 1, !tbaa !13
  %32 = load i8, ptr %16, align 1, !tbaa !13, !range !15, !noundef !16
  %33 = trunc i8 %32 to i1
  br i1 %33, label %34, label %35

34:                                               ; preds = %27
  store i1 true, ptr %8, align 1
  store i32 1, ptr %17, align 4
  br label %99

35:                                               ; preds = %27
  br label %36

36:                                               ; preds = %35
  br label %37

37:                                               ; preds = %36
  br label %38

38:                                               ; preds = %37
  %39 = load ptr, ptr %10, align 8, !tbaa !4
  %40 = load ptr, ptr %9, align 8, !tbaa !44
  %41 = getelementptr inbounds nuw %struct.hpa_shard_s, ptr %40, i32 0, i32 1
  store ptr %39, ptr %41, align 8, !tbaa !52
  %42 = load ptr, ptr %12, align 8, !tbaa !9
  %43 = load ptr, ptr %9, align 8, !tbaa !44
  %44 = getelementptr inbounds nuw %struct.hpa_shard_s, ptr %43, i32 0, i32 4
  store ptr %42, ptr %44, align 8, !tbaa !67
  %45 = load ptr, ptr %9, align 8, !tbaa !44
  %46 = getelementptr inbounds nuw %struct.hpa_shard_s, ptr %45, i32 0, i32 5
  %47 = load ptr, ptr %13, align 8, !tbaa !48
  call void @je_edata_cache_fast_init(ptr noundef %46, ptr noundef %47)
  %48 = load ptr, ptr %9, align 8, !tbaa !44
  %49 = getelementptr inbounds nuw %struct.hpa_shard_s, ptr %48, i32 0, i32 6
  call void @je_psset_init(ptr noundef %49)
  %50 = load ptr, ptr %9, align 8, !tbaa !44
  %51 = getelementptr inbounds nuw %struct.hpa_shard_s, ptr %50, i32 0, i32 7
  store i64 0, ptr %51, align 8, !tbaa !68
  %52 = load i32, ptr %14, align 4, !tbaa !38
  %53 = load ptr, ptr %9, align 8, !tbaa !44
  %54 = getelementptr inbounds nuw %struct.hpa_shard_s, ptr %53, i32 0, i32 8
  store i32 %52, ptr %54, align 8, !tbaa !69
  %55 = load ptr, ptr %11, align 8, !tbaa !46
  %56 = load ptr, ptr %9, align 8, !tbaa !44
  %57 = getelementptr inbounds nuw %struct.hpa_shard_s, ptr %56, i32 0, i32 9
  store ptr %55, ptr %57, align 8, !tbaa !70
  %58 = load ptr, ptr %9, align 8, !tbaa !44
  %59 = getelementptr inbounds nuw %struct.hpa_shard_s, ptr %58, i32 0, i32 10
  %60 = load ptr, ptr %15, align 8, !tbaa !50
  call void @llvm.memcpy.p0.p0.i64(ptr align 8 %59, ptr align 8 %60, i64 40, i1 false), !tbaa.struct !71
  %61 = load ptr, ptr %9, align 8, !tbaa !44
  %62 = getelementptr inbounds nuw %struct.hpa_shard_s, ptr %61, i32 0, i32 11
  store i64 0, ptr %62, align 8, !tbaa !72
  %63 = load ptr, ptr %9, align 8, !tbaa !44
  %64 = getelementptr inbounds nuw %struct.hpa_shard_s, ptr %63, i32 0, i32 13
  call void @nstime_init_zero(ptr noundef %64)
  %65 = load ptr, ptr %9, align 8, !tbaa !44
  %66 = getelementptr inbounds nuw %struct.hpa_shard_s, ptr %65, i32 0, i32 12
  %67 = getelementptr inbounds nuw %struct.hpa_shard_nonderived_stats_s, ptr %66, i32 0, i32 0
  store i64 0, ptr %67, align 8, !tbaa !73
  %68 = load ptr, ptr %9, align 8, !tbaa !44
  %69 = getelementptr inbounds nuw %struct.hpa_shard_s, ptr %68, i32 0, i32 12
  %70 = getelementptr inbounds nuw %struct.hpa_shard_nonderived_stats_s, ptr %69, i32 0, i32 1
  store i64 0, ptr %70, align 8, !tbaa !74
  %71 = load ptr, ptr %9, align 8, !tbaa !44
  %72 = getelementptr inbounds nuw %struct.hpa_shard_s, ptr %71, i32 0, i32 12
  %73 = getelementptr inbounds nuw %struct.hpa_shard_nonderived_stats_s, ptr %72, i32 0, i32 2
  store i64 0, ptr %73, align 8, !tbaa !75
  %74 = load ptr, ptr %9, align 8, !tbaa !44
  %75 = getelementptr inbounds nuw %struct.hpa_shard_s, ptr %74, i32 0, i32 12
  %76 = getelementptr inbounds nuw %struct.hpa_shard_nonderived_stats_s, ptr %75, i32 0, i32 3
  store i64 0, ptr %76, align 8, !tbaa !76
  %77 = load ptr, ptr %9, align 8, !tbaa !44
  %78 = getelementptr inbounds nuw %struct.hpa_shard_s, ptr %77, i32 0, i32 0
  %79 = getelementptr inbounds nuw %struct.pai_s, ptr %78, i32 0, i32 0
  store ptr @hpa_alloc, ptr %79, align 8, !tbaa !77
  %80 = load ptr, ptr %9, align 8, !tbaa !44
  %81 = getelementptr inbounds nuw %struct.hpa_shard_s, ptr %80, i32 0, i32 0
  %82 = getelementptr inbounds nuw %struct.pai_s, ptr %81, i32 0, i32 1
  store ptr @hpa_alloc_batch, ptr %82, align 8, !tbaa !78
  %83 = load ptr, ptr %9, align 8, !tbaa !44
  %84 = getelementptr inbounds nuw %struct.hpa_shard_s, ptr %83, i32 0, i32 0
  %85 = getelementptr inbounds nuw %struct.pai_s, ptr %84, i32 0, i32 2
  store ptr @hpa_expand, ptr %85, align 8, !tbaa !79
  %86 = load ptr, ptr %9, align 8, !tbaa !44
  %87 = getelementptr inbounds nuw %struct.hpa_shard_s, ptr %86, i32 0, i32 0
  %88 = getelementptr inbounds nuw %struct.pai_s, ptr %87, i32 0, i32 3
  store ptr @hpa_shrink, ptr %88, align 8, !tbaa !80
  %89 = load ptr, ptr %9, align 8, !tbaa !44
  %90 = getelementptr inbounds nuw %struct.hpa_shard_s, ptr %89, i32 0, i32 0
  %91 = getelementptr inbounds nuw %struct.pai_s, ptr %90, i32 0, i32 4
  store ptr @hpa_dalloc, ptr %91, align 8, !tbaa !81
  %92 = load ptr, ptr %9, align 8, !tbaa !44
  %93 = getelementptr inbounds nuw %struct.hpa_shard_s, ptr %92, i32 0, i32 0
  %94 = getelementptr inbounds nuw %struct.pai_s, ptr %93, i32 0, i32 5
  store ptr @hpa_dalloc_batch, ptr %94, align 8, !tbaa !82
  %95 = load ptr, ptr %9, align 8, !tbaa !44
  %96 = getelementptr inbounds nuw %struct.hpa_shard_s, ptr %95, i32 0, i32 0
  %97 = getelementptr inbounds nuw %struct.pai_s, ptr %96, i32 0, i32 6
  store ptr @hpa_time_until_deferred_work, ptr %97, align 8, !tbaa !83
  %98 = load ptr, ptr %9, align 8, !tbaa !44
  call void @hpa_do_consistency_checks(ptr noundef %98)
  store i1 false, ptr %8, align 1
  store i32 1, ptr %17, align 4
  br label %99

99:                                               ; preds = %38, %34, %26
  call void @llvm.lifetime.end.p0(i64 1, ptr %16) #7
  %100 = load i1, ptr %8, align 1
  ret i1 %100
}