; Function Attrs: nounwind uwtable
define hidden noundef zeroext i1 @je_hpa_shard_init(ptr noundef %0, ptr noundef %1, ptr noundef %2, ptr noundef %3, ptr noundef %4, i32 noundef %5, ptr noundef readonly captures(none) %6) local_unnamed_addr #1 {
  %8 = getelementptr inbounds nuw i8, ptr %0, i64 176
  %9 = tail call zeroext i1 @je_malloc_mutex_init(ptr noundef nonnull %8, ptr noundef nonnull @.str.2, i32 noundef 17, i32 noundef 0) #8
  br i1 %9, label %31, label %10

10:                                               ; preds = %7
  %11 = getelementptr inbounds nuw i8, ptr %0, i64 64
  %12 = tail call zeroext i1 @je_malloc_mutex_init(ptr noundef nonnull %11, ptr noundef nonnull @.str.3, i32 noundef 18, i32 noundef 0) #8
  br i1 %12, label %31, label %13

13:                                               ; preds = %10
  %14 = getelementptr inbounds nuw i8, ptr %0, i64 56
  store ptr %1, ptr %14, align 8, !tbaa !28
  %15 = getelementptr inbounds nuw i8, ptr %0, i64 288
  store ptr %3, ptr %15, align 8, !tbaa !46
  %16 = getelementptr inbounds nuw i8, ptr %0, i64 296
  tail call void @je_edata_cache_fast_init(ptr noundef nonnull %16, ptr noundef %4) #8
  %17 = getelementptr inbounds nuw i8, ptr %0, i64 320
  tail call void @je_psset_init(ptr noundef nonnull %17) #8
  %18 = getelementptr inbounds nuw i8, ptr %0, i64 5600
  store i64 0, ptr %18, align 8, !tbaa !47
  %19 = getelementptr inbounds nuw i8, ptr %0, i64 5608
  store i32 %5, ptr %19, align 8, !tbaa !48
  %20 = getelementptr inbounds nuw i8, ptr %0, i64 5616
  store ptr %2, ptr %20, align 8, !tbaa !49
  %21 = getelementptr inbounds nuw i8, ptr %0, i64 5624
  tail call void @llvm.memcpy.p0.p0.i64(ptr noundef nonnull align 8 dereferenceable(40) %21, ptr noundef nonnull align 8 dereferenceable(40) %6, i64 40, i1 false), !tbaa.struct !50
  %22 = getelementptr inbounds nuw i8, ptr %0, i64 5664
  store i64 0, ptr %22, align 8, !tbaa !53
  %23 = getelementptr inbounds nuw i8, ptr %0, i64 5704
  tail call void @je_nstime_copy(ptr noundef nonnull %23, ptr noundef nonnull @nstime_zero) #8
  %24 = getelementptr inbounds nuw i8, ptr %0, i64 5672
  tail call void @llvm.memset.p0.i64(ptr noundef nonnull align 8 dereferenceable(32) %24, i8 0, i64 32, i1 false)
  store ptr @hpa_alloc, ptr %0, align 8, !tbaa !54
  %25 = getelementptr inbounds nuw i8, ptr %0, i64 8
  store ptr @hpa_alloc_batch, ptr %25, align 8, !tbaa !55
  %26 = getelementptr inbounds nuw i8, ptr %0, i64 16
  store ptr @hpa_expand, ptr %26, align 8, !tbaa !56
  %27 = getelementptr inbounds nuw i8, ptr %0, i64 24
  store ptr @hpa_shrink, ptr %27, align 8, !tbaa !57
  %28 = getelementptr inbounds nuw i8, ptr %0, i64 32
  store ptr @hpa_dalloc, ptr %28, align 8, !tbaa !58
  %29 = getelementptr inbounds nuw i8, ptr %0, i64 40
  store ptr @hpa_dalloc_batch, ptr %29, align 8, !tbaa !59
  %30 = getelementptr inbounds nuw i8, ptr %0, i64 48
  store ptr @hpa_time_until_deferred_work, ptr %30, align 8, !tbaa !60
  br label %31

31:                                               ; preds = %10, %7, %13
  %.0 = phi i1 [ false, %13 ], [ true, %7 ], [ true, %10 ]
  ret i1 %.0
}